; ModuleID = '7/1281.c'
source_filename = "7/1281.c"
target datalayout = "e-m:e-p270:32:32-p271:32:32-p272:64:64-i64:64-f80:128-n8:16:32:64-S128"
target triple = "x86_64-pc-linux-gnu"

@.str = private unnamed_addr constant [8 x i8] c"%s%s%s\0A\00", align 1
@.str.1 = private unnamed_addr constant [4 x i8] c"%s\0A\00", align 1

; Function Attrs: noinline nounwind uwtable
define dso_local i32 @main() #0 {
  %1 = alloca i32, align 4
  %2 = alloca [300 x i8], align 16
  %3 = alloca [300 x i8], align 16
  %4 = alloca [300 x i8], align 16
  %5 = alloca [300 x i8], align 16
  %6 = alloca [300 x i8], align 16
  %7 = alloca [300 x i8], align 16
  %8 = alloca i32, align 4
  %9 = alloca i32, align 4
  %10 = alloca i32, align 4
  store i32 0, i32* %1, align 4
  %11 = bitcast [300 x i8]* %2 to i8*
  call void @llvm.memset.p0i8.i64(i8* align 16 %11, i8 0, i64 300, i1 false)
  %12 = bitcast [300 x i8]* %3 to i8*
  call void @llvm.memset.p0i8.i64(i8* align 16 %12, i8 0, i64 300, i1 false)
  %13 = bitcast [300 x i8]* %4 to i8*
  call void @llvm.memset.p0i8.i64(i8* align 16 %13, i8 0, i64 300, i1 false)
  %14 = bitcast [300 x i8]* %6 to i8*
  call void @llvm.memset.p0i8.i64(i8* align 16 %14, i8 0, i64 300, i1 false)
  %15 = bitcast [300 x i8]* %7 to i8*
  call void @llvm.memset.p0i8.i64(i8* align 16 %15, i8 0, i64 300, i1 false)
  %16 = getelementptr inbounds [300 x i8], [300 x i8]* %2, i64 0, i64 0
  %17 = call i32 (i8*, ...) bitcast (i32 (...)* @gets to i32 (i8*, ...)*)(i8* %16)
  %18 = getelementptr inbounds [300 x i8], [300 x i8]* %3, i64 0, i64 0
  %19 = call i32 (i8*, ...) bitcast (i32 (...)* @gets to i32 (i8*, ...)*)(i8* %18)
  %20 = getelementptr inbounds [300 x i8], [300 x i8]* %4, i64 0, i64 0
  %21 = call i32 (i8*, ...) bitcast (i32 (...)* @gets to i32 (i8*, ...)*)(i8* %20)
  store i32 0, i32* %8, align 4
  br label %22

22:                                               ; preds = %126, %0
  %23 = load i32, i32* %8, align 4
  %24 = sext i32 %23 to i64
  %25 = getelementptr inbounds [300 x i8], [300 x i8]* %2, i64 0, i64 0
  %26 = call i64 @strlen(i8* %25) #4
  %27 = icmp ult i64 %24, %26
  br i1 %27, label %28, label %129

28:                                               ; preds = %22
  %29 = load i32, i32* %8, align 4
  %30 = sext i32 %29 to i64
  %31 = getelementptr inbounds [300 x i8], [300 x i8]* %2, i64 0, i64 %30
  %32 = load i8, i8* %31, align 1
  %33 = sext i8 %32 to i32
  %34 = getelementptr inbounds [300 x i8], [300 x i8]* %3, i64 0, i64 0
  %35 = load i8, i8* %34, align 16
  %36 = sext i8 %35 to i32
  %37 = icmp eq i32 %33, %36
  br i1 %37, label %38, label %125

38:                                               ; preds = %28
  store i32 0, i32* %9, align 4
  br label %39

39:                                               ; preds = %46, %38
  %40 = load i32, i32* %9, align 4
  %41 = icmp slt i32 %40, 299
  br i1 %41, label %42, label %49

42:                                               ; preds = %39
  %43 = load i32, i32* %9, align 4
  %44 = sext i32 %43 to i64
  %45 = getelementptr inbounds [300 x i8], [300 x i8]* %5, i64 0, i64 %44
  store i8 0, i8* %45, align 1
  br label %46

46:                                               ; preds = %42
  %47 = load i32, i32* %9, align 4
  %48 = add nsw i32 %47, 1
  store i32 %48, i32* %9, align 4
  br label %39

49:                                               ; preds = %39
  store i32 0, i32* %9, align 4
  br label %50

50:                                               ; preds = %66, %49
  %51 = load i32, i32* %9, align 4
  %52 = sext i32 %51 to i64
  %53 = getelementptr inbounds [300 x i8], [300 x i8]* %3, i64 0, i64 0
  %54 = call i64 @strlen(i8* %53) #4
  %55 = icmp ult i64 %52, %54
  br i1 %55, label %56, label %69

56:                                               ; preds = %50
  %57 = load i32, i32* %8, align 4
  %58 = load i32, i32* %9, align 4
  %59 = add nsw i32 %57, %58
  %60 = sext i32 %59 to i64
  %61 = getelementptr inbounds [300 x i8], [300 x i8]* %2, i64 0, i64 %60
  %62 = load i8, i8* %61, align 1
  %63 = load i32, i32* %9, align 4
  %64 = sext i32 %63 to i64
  %65 = getelementptr inbounds [300 x i8], [300 x i8]* %5, i64 0, i64 %64
  store i8 %62, i8* %65, align 1
  br label %66

66:                                               ; preds = %56
  %67 = load i32, i32* %9, align 4
  %68 = add nsw i32 %67, 1
  store i32 %68, i32* %9, align 4
  br label %50

69:                                               ; preds = %50
  %70 = getelementptr inbounds [300 x i8], [300 x i8]* %5, i64 0, i64 0
  %71 = getelementptr inbounds [300 x i8], [300 x i8]* %3, i64 0, i64 0
  %72 = call i32 @strcmp(i8* %70, i8* %71) #4
  %73 = icmp eq i32 %72, 0
  br i1 %73, label %74, label %124

74:                                               ; preds = %69
  store i32 0, i32* %9, align 4
  br label %75

75:                                               ; preds = %87, %74
  %76 = load i32, i32* %9, align 4
  %77 = load i32, i32* %8, align 4
  %78 = icmp slt i32 %76, %77
  br i1 %78, label %79, label %90

79:                                               ; preds = %75
  %80 = load i32, i32* %9, align 4
  %81 = sext i32 %80 to i64
  %82 = getelementptr inbounds [300 x i8], [300 x i8]* %2, i64 0, i64 %81
  %83 = load i8, i8* %82, align 1
  %84 = load i32, i32* %9, align 4
  %85 = sext i32 %84 to i64
  %86 = getelementptr inbounds [300 x i8], [300 x i8]* %6, i64 0, i64 %85
  store i8 %83, i8* %86, align 1
  br label %87

87:                                               ; preds = %79
  %88 = load i32, i32* %9, align 4
  %89 = add nsw i32 %88, 1
  store i32 %89, i32* %9, align 4
  br label %75

90:                                               ; preds = %75
  %91 = load i32, i32* %8, align 4
  %92 = sext i32 %91 to i64
  %93 = getelementptr inbounds [300 x i8], [300 x i8]* %3, i64 0, i64 0
  %94 = call i64 @strlen(i8* %93) #4
  %95 = add i64 %92, %94
  %96 = trunc i64 %95 to i32
  store i32 %96, i32* %9, align 4
  br label %97

97:                                               ; preds = %116, %90
  %98 = load i32, i32* %9, align 4
  %99 = sext i32 %98 to i64
  %100 = getelementptr inbounds [300 x i8], [300 x i8]* %2, i64 0, i64 0
  %101 = call i64 @strlen(i8* %100) #4
  %102 = icmp ult i64 %99, %101
  br i1 %102, label %103, label %119

103:                                              ; preds = %97
  %104 = load i32, i32* %9, align 4
  %105 = sext i32 %104 to i64
  %106 = getelementptr inbounds [300 x i8], [300 x i8]* %2, i64 0, i64 %105
  %107 = load i8, i8* %106, align 1
  %108 = load i32, i32* %9, align 4
  %109 = load i32, i32* %8, align 4
  %110 = sub nsw i32 %108, %109
  %111 = sext i32 %110 to i64
  %112 = getelementptr inbounds [300 x i8], [300 x i8]* %3, i64 0, i64 0
  %113 = call i64 @strlen(i8* %112) #4
  %114 = sub i64 %111, %113
  %115 = getelementptr inbounds [300 x i8], [300 x i8]* %7, i64 0, i64 %114
  store i8 %107, i8* %115, align 1
  br label %116

116:                                              ; preds = %103
  %117 = load i32, i32* %9, align 4
  %118 = add nsw i32 %117, 1
  store i32 %118, i32* %9, align 4
  br label %97

119:                                              ; preds = %97
  %120 = getelementptr inbounds [300 x i8], [300 x i8]* %6, i64 0, i64 0
  %121 = getelementptr inbounds [300 x i8], [300 x i8]* %4, i64 0, i64 0
  %122 = getelementptr inbounds [300 x i8], [300 x i8]* %7, i64 0, i64 0
  %123 = call i32 (i8*, ...) @printf(i8* getelementptr inbounds ([8 x i8], [8 x i8]* @.str, i64 0, i64 0), i8* %120, i8* %121, i8* %122)
  store i32 0, i32* %1, align 4
  br label %132

124:                                              ; preds = %69
  br label %125

125:                                              ; preds = %124, %28
  br label %126

126:                                              ; preds = %125
  %127 = load i32, i32* %8, align 4
  %128 = add nsw i32 %127, 1
  store i32 %128, i32* %8, align 4
  br label %22

129:                                              ; preds = %22
  %130 = getelementptr inbounds [300 x i8], [300 x i8]* %2, i64 0, i64 0
  %131 = call i32 (i8*, ...) @printf(i8* getelementptr inbounds ([4 x i8], [4 x i8]* @.str.1, i64 0, i64 0), i8* %130)
  store i32 0, i32* %1, align 4
  br label %132

132:                                              ; preds = %129, %119
  %133 = load i32, i32* %1, align 4
  ret i32 %133
}

; Function Attrs: argmemonly nounwind willreturn
declare void @llvm.memset.p0i8.i64(i8* nocapture writeonly, i8, i64, i1 immarg) #1

declare dso_local i32 @gets(...) #2

; Function Attrs: nounwind readonly
declare dso_local i64 @strlen(i8*) #3

; Function Attrs: nounwind readonly
declare dso_local i32 @strcmp(i8*, i8*) #3

declare dso_local i32 @printf(i8*, ...) #2


!llvm.module.flags = !{!0}
!llvm.ident = !{!1}

!0 = !{i32 1, !"wchar_size", i32 4}
!1 = !{!"clang version 10.0.0-4ubuntu1 "}
